target datalayout = "e-m:e-p270:32:32-p271:32:32-p272:64:64-i64:64-i128:128-f80:128-n8:16:32:64-S128"
target triple = "x86_64-pc-linux-gnu"

%struct.location = type { i32, i32 }
%struct.block = type { ptr, ptr }
%struct.inst = type { ptr, ptr, i32, %struct.anon, ptr, %struct.location, ptr, ptr, i32, i32, i32, i32, %struct.block, %struct.block, ptr, i32 }
%struct.anon = type { i16, ptr, %struct.jv, ptr }
%struct.jv = type { i8, i8, i16, i32, %union.anon }
%union.anon = type { ptr }

@UNKNOWN_LOCATION = internal constant %struct.location { i32 -1, i32 -1 }, align 4

; Function Attrs: nounwind uwtable
define internal void @inst_join(ptr noundef %0, ptr noundef %1) #0 {
  %3 = alloca ptr, align 8
  %4 = alloca ptr, align 8
  store ptr %0, ptr %3, align 8, !tbaa !13
  store ptr %1, ptr %4, align 8, !tbaa !13
  %5 = load ptr, ptr %4, align 8, !tbaa !13
  %6 = load ptr, ptr %3, align 8, !tbaa !13
  %7 = getelementptr inbounds nuw %struct.inst, ptr %6, i32 0, i32 0
  store ptr %5, ptr %7, align 8, !tbaa !28
  %8 = load ptr, ptr %3, align 8, !tbaa !13
  %9 = load ptr, ptr %4, align 8, !tbaa !13
  %10 = getelementptr inbounds nuw %struct.inst, ptr %9, i32 0, i32 1
  store ptr %8, ptr %10, align 8, !tbaa !32
  ret void
}

; Function Attrs: nounwind uwtable
define dso_local { ptr, ptr } @gen_noop() #0 {
  %1 = alloca %struct.block, align 8
  call void @llvm.memset.p0.i64(ptr align 8 %1, i8 0, i64 16, i1 false)
  %2 = load { ptr, ptr }, ptr %1, align 8
  ret { ptr, ptr } %2
}

; Function Attrs: nounwind uwtable
define dso_local void @block_append(ptr noundef %0, ptr %1, ptr %2) #0 {
  %4 = alloca %struct.block, align 8
  %5 = alloca ptr, align 8
  %6 = getelementptr inbounds nuw { ptr, ptr }, ptr %4, i32 0, i32 0
  store ptr %1, ptr %6, align 8
  %7 = getelementptr inbounds nuw { ptr, ptr }, ptr %4, i32 0, i32 1
  store ptr %2, ptr %7, align 8
  store ptr %0, ptr %5, align 8, !tbaa !46
  %8 = getelementptr inbounds nuw %struct.block, ptr %4, i32 0, i32 0
  %9 = load ptr, ptr %8, align 8, !tbaa !4
  %10 = icmp ne ptr %9, null
  br i1 %10, label %11, label %32

11:                                               ; preds = %3
  %12 = load ptr, ptr %5, align 8, !tbaa !46
  %13 = getelementptr inbounds nuw %struct.block, ptr %12, i32 0, i32 1
  %14 = load ptr, ptr %13, align 8, !tbaa !10
  %15 = icmp ne ptr %14, null
  br i1 %15, label %16, label %22

16:                                               ; preds = %11
  %17 = load ptr, ptr %5, align 8, !tbaa !46
  %18 = getelementptr inbounds nuw %struct.block, ptr %17, i32 0, i32 1
  %19 = load ptr, ptr %18, align 8, !tbaa !10
  %20 = getelementptr inbounds nuw %struct.block, ptr %4, i32 0, i32 0
  %21 = load ptr, ptr %20, align 8, !tbaa !4
  call void @inst_join(ptr noundef %19, ptr noundef %21)
  br label %27

22:                                               ; preds = %11
  %23 = getelementptr inbounds nuw %struct.block, ptr %4, i32 0, i32 0
  %24 = load ptr, ptr %23, align 8, !tbaa !4
  %25 = load ptr, ptr %5, align 8, !tbaa !46
  %26 = getelementptr inbounds nuw %struct.block, ptr %25, i32 0, i32 0
  store ptr %24, ptr %26, align 8, !tbaa !4
  br label %27

27:                                               ; preds = %22, %16
  %28 = getelementptr inbounds nuw %struct.block, ptr %4, i32 0, i32 1
  %29 = load ptr, ptr %28, align 8, !tbaa !10
  %30 = load ptr, ptr %5, align 8, !tbaa !46
  %31 = getelementptr inbounds nuw %struct.block, ptr %30, i32 0, i32 1
  store ptr %29, ptr %31, align 8, !tbaa !10
  br label %32

32:                                               ; preds = %27, %3
  ret void
}

; Function Attrs: nounwind uwtable
define internal { ptr, ptr } @inst_block(ptr noundef %0) #0 {
  %2 = alloca %struct.block, align 8
  %3 = alloca ptr, align 8
  store ptr %0, ptr %3, align 8, !tbaa !13
  %4 = getelementptr inbounds nuw %struct.block, ptr %2, i32 0, i32 0
  %5 = load ptr, ptr %3, align 8, !tbaa !13
  store ptr %5, ptr %4, align 8, !tbaa !4
  %6 = getelementptr inbounds nuw %struct.block, ptr %2, i32 0, i32 1
  %7 = load ptr, ptr %3, align 8, !tbaa !13
  store ptr %7, ptr %6, align 8, !tbaa !10
  %8 = load { ptr, ptr }, ptr %2, align 8
  ret { ptr, ptr } %8
}

; Function Attrs: nounwind uwtable
define internal ptr @inst_new(i32 noundef %0) #0 {
  %2 = alloca i32, align 4
  %3 = alloca ptr, align 8
  %4 = alloca %struct.block, align 8
  %5 = alloca %struct.block, align 8
  store i32 %0, ptr %2, align 4, !tbaa !26
  call void @llvm.lifetime.start.p0(i64 8, ptr %3) #7
  %6 = call ptr @jv_mem_alloc(i64 noundef 160)
  store ptr %6, ptr %3, align 8, !tbaa !13
  %7 = load ptr, ptr %3, align 8, !tbaa !13
  %8 = getelementptr inbounds nuw %struct.inst, ptr %7, i32 0, i32 1
  store ptr null, ptr %8, align 8, !tbaa !32
  %9 = load ptr, ptr %3, align 8, !tbaa !13
  %10 = getelementptr inbounds nuw %struct.inst, ptr %9, i32 0, i32 0
  store ptr null, ptr %10, align 8, !tbaa !28
  %11 = load i32, ptr %2, align 4, !tbaa !26
  %12 = load ptr, ptr %3, align 8, !tbaa !13
  %13 = getelementptr inbounds nuw %struct.inst, ptr %12, i32 0, i32 2
  store i32 %11, ptr %13, align 8, !tbaa !33
  %14 = load ptr, ptr %3, align 8, !tbaa !13
  %15 = getelementptr inbounds nuw %struct.inst, ptr %14, i32 0, i32 15
  store i32 -1, ptr %15, align 8, !tbaa !34
  %16 = load ptr, ptr %3, align 8, !tbaa !13
  %17 = getelementptr inbounds nuw %struct.inst, ptr %16, i32 0, i32 6
  store ptr null, ptr %17, align 8, !tbaa !35
  %18 = load ptr, ptr %3, align 8, !tbaa !13
  %19 = getelementptr inbounds nuw %struct.inst, ptr %18, i32 0, i32 7
  store ptr null, ptr %19, align 8, !tbaa !36
  %20 = load ptr, ptr %3, align 8, !tbaa !13
  %21 = getelementptr inbounds nuw %struct.inst, ptr %20, i32 0, i32 8
  store i32 0, ptr %21, align 8, !tbaa !37
  %22 = load ptr, ptr %3, align 8, !tbaa !13
  %23 = getelementptr inbounds nuw %struct.inst, ptr %22, i32 0, i32 9
  store i32 0, ptr %23, align 4, !tbaa !38
  %24 = load ptr, ptr %3, align 8, !tbaa !13
  %25 = getelementptr inbounds nuw %struct.inst, ptr %24, i32 0, i32 10
  store i32 -1, ptr %25, align 8, !tbaa !39
  %26 = load ptr, ptr %3, align 8, !tbaa !13
  %27 = getelementptr inbounds nuw %struct.inst, ptr %26, i32 0, i32 11
  store i32 -1, ptr %27, align 4, !tbaa !40
  %28 = load ptr, ptr %3, align 8, !tbaa !13
  %29 = getelementptr inbounds nuw %struct.inst, ptr %28, i32 0, i32 12
  call void @llvm.lifetime.start.p0(i64 16, ptr %4) #7
  %30 = call { ptr, ptr } @gen_noop()
  %31 = getelementptr inbounds nuw { ptr, ptr }, ptr %4, i32 0, i32 0
  %32 = extractvalue { ptr, ptr } %30, 0
  store ptr %32, ptr %31, align 8
  %33 = getelementptr inbounds nuw { ptr, ptr }, ptr %4, i32 0, i32 1
  %34 = extractvalue { ptr, ptr } %30, 1
  store ptr %34, ptr %33, align 8
  call void @llvm.memcpy.p0.p0.i64(ptr align 8 %29, ptr align 8 %4, i64 16, i1 false), !tbaa.struct !31
  call void @llvm.lifetime.end.p0(i64 16, ptr %4) #7
  %35 = load ptr, ptr %3, align 8, !tbaa !13
  %36 = getelementptr inbounds nuw %struct.inst, ptr %35, i32 0, i32 13
  call void @llvm.lifetime.start.p0(i64 16, ptr %5) #7
  %37 = call { ptr, ptr } @gen_noop()
  %38 = getelementptr inbounds nuw { ptr, ptr }, ptr %5, i32 0, i32 0
  %39 = extractvalue { ptr, ptr } %37, 0
  store ptr %39, ptr %38, align 8
  %40 = getelementptr inbounds nuw { ptr, ptr }, ptr %5, i32 0, i32 1
  %41 = extractvalue { ptr, ptr } %37, 1
  store ptr %41, ptr %40, align 8
  call void @llvm.memcpy.p0.p0.i64(ptr align 8 %36, ptr align 8 %5, i64 16, i1 false), !tbaa.struct !31
  call void @llvm.lifetime.end.p0(i64 16, ptr %5) #7
  %42 = load ptr, ptr %3, align 8, !tbaa !13
  %43 = getelementptr inbounds nuw %struct.inst, ptr %42, i32 0, i32 5
  call void @llvm.memcpy.p0.p0.i64(ptr align 8 %43, ptr align 4 @UNKNOWN_LOCATION, i64 8, i1 false), !tbaa.struct !25
  %44 = load ptr, ptr %3, align 8, !tbaa !13
  %45 = getelementptr inbounds nuw %struct.inst, ptr %44, i32 0, i32 4
  store ptr null, ptr %45, align 8, !tbaa !27
  %46 = load ptr, ptr %3, align 8, !tbaa !13
  call void @llvm.lifetime.end.p0(i64 8, ptr %3) #7
  ret ptr %46
}

; Function Attrs: nounwind uwtable
define dso_local void @inst_set_target(ptr %0, ptr %1, ptr %2, ptr %3) #0 {
  %5 = alloca %struct.block, align 8
  %6 = alloca %struct.block, align 8
  %7 = getelementptr inbounds nuw { ptr, ptr }, ptr %5, i32 0, i32 0
  store ptr %0, ptr %7, align 8
  %8 = getelementptr inbounds nuw { ptr, ptr }, ptr %5, i32 0, i32 1
  store ptr %1, ptr %8, align 8
  %9 = getelementptr inbounds nuw { ptr, ptr }, ptr %6, i32 0, i32 0
  store ptr %2, ptr %9, align 8
  %10 = getelementptr inbounds nuw { ptr, ptr }, ptr %6, i32 0, i32 1
  store ptr %3, ptr %10, align 8
  %11 = getelementptr inbounds nuw %struct.block, ptr %6, i32 0, i32 1
  %12 = load ptr, ptr %11, align 8, !tbaa !10
  %13 = getelementptr inbounds nuw %struct.block, ptr %5, i32 0, i32 0
  %14 = load ptr, ptr %13, align 8, !tbaa !4
  %15 = getelementptr inbounds nuw %struct.inst, ptr %14, i32 0, i32 3
  %16 = getelementptr inbounds nuw %struct.anon, ptr %15, i32 0, i32 1
  store ptr %12, ptr %16, align 8, !tbaa !45
  ret void
}

; Function Attrs: nounwind uwtable
define dso_local { ptr, ptr } @block_join(ptr %0, ptr %1, ptr %2, ptr %3) #0 {
  %5 = alloca %struct.block, align 8
  %6 = alloca %struct.block, align 8
  %7 = alloca %struct.block, align 8
  %8 = getelementptr inbounds nuw { ptr, ptr }, ptr %6, i32 0, i32 0
  store ptr %0, ptr %8, align 8
  %9 = getelementptr inbounds nuw { ptr, ptr }, ptr %6, i32 0, i32 1
  store ptr %1, ptr %9, align 8
  %10 = getelementptr inbounds nuw { ptr, ptr }, ptr %7, i32 0, i32 0
  store ptr %2, ptr %10, align 8
  %11 = getelementptr inbounds nuw { ptr, ptr }, ptr %7, i32 0, i32 1
  store ptr %3, ptr %11, align 8
  call void @llvm.memcpy.p0.p0.i64(ptr align 8 %5, ptr align 8 %6, i64 16, i1 false), !tbaa.struct !31
  %12 = getelementptr inbounds nuw { ptr, ptr }, ptr %7, i32 0, i32 0
  %13 = load ptr, ptr %12, align 8
  %14 = getelementptr inbounds nuw { ptr, ptr }, ptr %7, i32 0, i32 1
  %15 = load ptr, ptr %14, align 8
  call void @block_append(ptr noundef %5, ptr %13, ptr %15)
  %16 = load { ptr, ptr }, ptr %5, align 8
  ret { ptr, ptr } %16
}

; Function Attrs: nounwind uwtable
define dso_local { ptr, ptr } @gen_op_target(i32 noundef %0, ptr %1, ptr %2) #0 {
  %4 = alloca %struct.block, align 8
  %5 = alloca %struct.block, align 8
  %6 = alloca i32, align 4
  %7 = alloca ptr, align 8
  %8 = getelementptr inbounds nuw { ptr, ptr }, ptr %5, i32 0, i32 0
  store ptr %1, ptr %8, align 8
  %9 = getelementptr inbounds nuw { ptr, ptr }, ptr %5, i32 0, i32 1
  store ptr %2, ptr %9, align 8
  store i32 %0, ptr %6, align 4, !tbaa !26
  call void @llvm.lifetime.start.p0(i64 8, ptr %7) #7
  %10 = load i32, ptr %6, align 4, !tbaa !26
  %11 = call ptr @inst_new(i32 noundef %10)
  store ptr %11, ptr %7, align 8, !tbaa !13
  %12 = getelementptr inbounds nuw %struct.block, ptr %5, i32 0, i32 1
  %13 = load ptr, ptr %12, align 8, !tbaa !10
  %14 = load ptr, ptr %7, align 8, !tbaa !13
  %15 = getelementptr inbounds nuw %struct.inst, ptr %14, i32 0, i32 3
  %16 = getelementptr inbounds nuw %struct.anon, ptr %15, i32 0, i32 1
  store ptr %13, ptr %16, align 8, !tbaa !45
  %17 = load ptr, ptr %7, align 8, !tbaa !13
  %18 = call { ptr, ptr } @inst_block(ptr noundef %17)
  %19 = getelementptr inbounds nuw { ptr, ptr }, ptr %4, i32 0, i32 0
  %20 = extractvalue { ptr, ptr } %18, 0
  store ptr %20, ptr %19, align 8
  %21 = getelementptr inbounds nuw { ptr, ptr }, ptr %4, i32 0, i32 1
  %22 = extractvalue { ptr, ptr } %18, 1
  store ptr %22, ptr %21, align 8
  call void @llvm.lifetime.end.p0(i64 8, ptr %7) #7
  %23 = load { ptr, ptr }, ptr %4, align 8
  ret { ptr, ptr } %23
}

; Function Attrs: nounwind uwtable
define dso_local { ptr, ptr } @gen_op_targetlater(i32 noundef %0) #0 {
  %2 = alloca %struct.block, align 8
  %3 = alloca i32, align 4
  %4 = alloca ptr, align 8
  store i32 %0, ptr %3, align 4, !tbaa !26
  call void @llvm.lifetime.start.p0(i64 8, ptr %4) #7
  %5 = load i32, ptr %3, align 4, !tbaa !26
  %6 = call ptr @inst_new(i32 noundef %5)
  store ptr %6, ptr %4, align 8, !tbaa !13
  %7 = load ptr, ptr %4, align 8, !tbaa !13
  %8 = getelementptr inbounds nuw %struct.inst, ptr %7, i32 0, i32 3
  %9 = getelementptr inbounds nuw %struct.anon, ptr %8, i32 0, i32 1
  store ptr null, ptr %9, align 8, !tbaa !45
  %10 = load ptr, ptr %4, align 8, !tbaa !13
  %11 = call { ptr, ptr } @inst_block(ptr noundef %10)
  %12 = getelementptr inbounds nuw { ptr, ptr }, ptr %2, i32 0, i32 0
  %13 = extractvalue { ptr, ptr } %11, 0
  store ptr %13, ptr %12, align 8
  %14 = getelementptr inbounds nuw { ptr, ptr }, ptr %2, i32 0, i32 1
  %15 = extractvalue { ptr, ptr } %11, 1
  store ptr %15, ptr %14, align 8
  call void @llvm.lifetime.end.p0(i64 8, ptr %4) #7
  %16 = load { ptr, ptr }, ptr %2, align 8
  ret { ptr, ptr } %16
}

; Function Attrs: nounwind uwtable
define dso_local { ptr, ptr } @gen_both(ptr %0, ptr %1, ptr %2, ptr %3) #0 {
  %5 = alloca %struct.block, align 8
  %6 = alloca %struct.block, align 8
  %7 = alloca %struct.block, align 8
  %8 = alloca %struct.block, align 8
  %9 = alloca %struct.block, align 8
  %10 = alloca %struct.block, align 8
  %11 = alloca %struct.block, align 8
  %12 = getelementptr inbounds nuw { ptr, ptr }, ptr %6, i32 0, i32 0
  store ptr %0, ptr %12, align 8
  %13 = getelementptr inbounds nuw { ptr, ptr }, ptr %6, i32 0, i32 1
  store ptr %1, ptr %13, align 8
  %14 = getelementptr inbounds nuw { ptr, ptr }, ptr %7, i32 0, i32 0
  store ptr %2, ptr %14, align 8
  %15 = getelementptr inbounds nuw { ptr, ptr }, ptr %7, i32 0, i32 1
  store ptr %3, ptr %15, align 8
  call void @llvm.lifetime.start.p0(i64 16, ptr %8) #7
  %16 = call { ptr, ptr } @gen_op_targetlater(i32 noundef 17)
  %17 = getelementptr inbounds nuw { ptr, ptr }, ptr %8, i32 0, i32 0
  %18 = extractvalue { ptr, ptr } %16, 0
  store ptr %18, ptr %17, align 8
  %19 = getelementptr inbounds nuw { ptr, ptr }, ptr %8, i32 0, i32 1
  %20 = extractvalue { ptr, ptr } %16, 1
  store ptr %20, ptr %19, align 8
  call void @llvm.lifetime.start.p0(i64 16, ptr %9) #7
  %21 = getelementptr inbounds nuw { ptr, ptr }, ptr %8, i32 0, i32 0
  %22 = load ptr, ptr %21, align 8
  %23 = getelementptr inbounds nuw { ptr, ptr }, ptr %8, i32 0, i32 1
  %24 = load ptr, ptr %23, align 8
  %25 = call { ptr, ptr } @gen_op_target(i32 noundef 14, ptr %22, ptr %24)
  %26 = getelementptr inbounds nuw { ptr, ptr }, ptr %9, i32 0, i32 0
  %27 = extractvalue { ptr, ptr } %25, 0
  store ptr %27, ptr %26, align 8
  %28 = getelementptr inbounds nuw { ptr, ptr }, ptr %9, i32 0, i32 1
  %29 = extractvalue { ptr, ptr } %25, 1
  store ptr %29, ptr %28, align 8
  %30 = getelementptr inbounds nuw { ptr, ptr }, ptr %9, i32 0, i32 0
  %31 = load ptr, ptr %30, align 8
  %32 = getelementptr inbounds nuw { ptr, ptr }, ptr %9, i32 0, i32 1
  %33 = load ptr, ptr %32, align 8
  %34 = getelementptr inbounds nuw { ptr, ptr }, ptr %6, i32 0, i32 0
  %35 = load ptr, ptr %34, align 8
  %36 = getelementptr inbounds nuw { ptr, ptr }, ptr %6, i32 0, i32 1
  %37 = load ptr, ptr %36, align 8
  %38 = call { ptr, ptr } @block_join(ptr %31, ptr %33, ptr %35, ptr %37)
  %39 = getelementptr inbounds nuw { ptr, ptr }, ptr %11, i32 0, i32 0
  %40 = extractvalue { ptr, ptr } %38, 0
  store ptr %40, ptr %39, align 8
  %41 = getelementptr inbounds nuw { ptr, ptr }, ptr %11, i32 0, i32 1
  %42 = extractvalue { ptr, ptr } %38, 1
  store ptr %42, ptr %41, align 8
  %43 = getelementptr inbounds nuw { ptr, ptr }, ptr %11, i32 0, i32 0
  %44 = load ptr, ptr %43, align 8
  %45 = getelementptr inbounds nuw { ptr, ptr }, ptr %11, i32 0, i32 1
  %46 = load ptr, ptr %45, align 8
  %47 = getelementptr inbounds nuw { ptr, ptr }, ptr %8, i32 0, i32 0
  %48 = load ptr, ptr %47, align 8
  %49 = getelementptr inbounds nuw { ptr, ptr }, ptr %8, i32 0, i32 1
  %50 = load ptr, ptr %49, align 8
  %51 = call { ptr, ptr } @block_join(ptr %44, ptr %46, ptr %48, ptr %50)
  %52 = getelementptr inbounds nuw { ptr, ptr }, ptr %10, i32 0, i32 0
  %53 = extractvalue { ptr, ptr } %51, 0
  store ptr %53, ptr %52, align 8
  %54 = getelementptr inbounds nuw { ptr, ptr }, ptr %10, i32 0, i32 1
  %55 = extractvalue { ptr, ptr } %51, 1
  store ptr %55, ptr %54, align 8
  %56 = getelementptr inbounds nuw { ptr, ptr }, ptr %10, i32 0, i32 0
  %57 = load ptr, ptr %56, align 8
  %58 = getelementptr inbounds nuw { ptr, ptr }, ptr %10, i32 0, i32 1
  %59 = load ptr, ptr %58, align 8
  %60 = getelementptr inbounds nuw { ptr, ptr }, ptr %7, i32 0, i32 0
  %61 = load ptr, ptr %60, align 8
  %62 = getelementptr inbounds nuw { ptr, ptr }, ptr %7, i32 0, i32 1
  %63 = load ptr, ptr %62, align 8
  %64 = call { ptr, ptr } @block_join(ptr %57, ptr %59, ptr %61, ptr %63)
  %65 = getelementptr inbounds nuw { ptr, ptr }, ptr %5, i32 0, i32 0
  %66 = extractvalue { ptr, ptr } %64, 0
  store ptr %66, ptr %65, align 8
  %67 = getelementptr inbounds nuw { ptr, ptr }, ptr %5, i32 0, i32 1
  %68 = extractvalue { ptr, ptr } %64, 1
  store ptr %68, ptr %67, align 8
  %69 = getelementptr inbounds nuw { ptr, ptr }, ptr %8, i32 0, i32 0
  %70 = load ptr, ptr %69, align 8
  %71 = getelementptr inbounds nuw { ptr, ptr }, ptr %8, i32 0, i32 1
  %72 = load ptr, ptr %71, align 8
  %73 = getelementptr inbounds nuw { ptr, ptr }, ptr %5, i32 0, i32 0
  %74 = load ptr, ptr %73, align 8
  %75 = getelementptr inbounds nuw { ptr, ptr }, ptr %5, i32 0, i32 1
  %76 = load ptr, ptr %75, align 8
  call void @inst_set_target(ptr %70, ptr %72, ptr %74, ptr %76)
  call void @llvm.lifetime.end.p0(i64 16, ptr %9) #7
  call void @llvm.lifetime.end.p0(i64 16, ptr %8) #7
  %77 = load { ptr, ptr }, ptr %5, align 8
  ret { ptr, ptr } %77
}