; Function Attrs: nounwind uwtable
define dso_local { ptr, ptr } @gen_both(ptr %0, ptr %1, ptr %2, ptr %3) local_unnamed_addr #1 {
  %5 = tail call ptr @jv_mem_alloc(i64 noundef 160) #17
  %6 = getelementptr inbounds nuw i8, ptr %5, i64 16
  tail call void @llvm.memset.p0.i64(ptr noundef nonnull align 8 dereferenceable(16) %5, i8 0, i64 16, i1 false)
  store i32 17, ptr %6, align 8, !tbaa !25
  %7 = getelementptr inbounds nuw i8, ptr %5, i64 152
  store i32 -1, ptr %7, align 8, !tbaa !26
  %8 = getelementptr inbounds nuw i8, ptr %5, i64 80
  %9 = getelementptr inbounds nuw i8, ptr %5, i64 104
  tail call void @llvm.memset.p0.i64(ptr noundef nonnull align 8 dereferenceable(24) %8, i8 0, i64 24, i1 false)
  store i32 -1, ptr %9, align 8, !tbaa !27
  %10 = getelementptr inbounds nuw i8, ptr %5, i64 108
  store i32 -1, ptr %10, align 4, !tbaa !28
  %11 = getelementptr inbounds nuw i8, ptr %5, i64 112
  %12 = getelementptr inbounds nuw i8, ptr %5, i64 72
  tail call void @llvm.memset.p0.i64(ptr noundef nonnull align 8 dereferenceable(32) %11, i8 0, i64 32, i1 false)
  store i64 -1, ptr %12, align 8
  %13 = getelementptr inbounds nuw i8, ptr %5, i64 64
  store ptr null, ptr %13, align 8, !tbaa !21
  %14 = getelementptr inbounds nuw i8, ptr %5, i64 32
  store ptr null, ptr %14, align 8, !tbaa !32
  %15 = tail call ptr @jv_mem_alloc(i64 noundef 160) #17
  %16 = getelementptr inbounds nuw i8, ptr %15, i64 16
  tail call void @llvm.memset.p0.i64(ptr noundef nonnull align 8 dereferenceable(16) %15, i8 0, i64 16, i1 false)
  store i32 14, ptr %16, align 8, !tbaa !25
  %17 = getelementptr inbounds nuw i8, ptr %15, i64 152
  store i32 -1, ptr %17, align 8, !tbaa !26
  %18 = getelementptr inbounds nuw i8, ptr %15, i64 80
  %19 = getelementptr inbounds nuw i8, ptr %15, i64 104
  tail call void @llvm.memset.p0.i64(ptr noundef nonnull align 8 dereferenceable(24) %18, i8 0, i64 24, i1 false)
  store i32 -1, ptr %19, align 8, !tbaa !27
  %20 = getelementptr inbounds nuw i8, ptr %15, i64 108
  store i32 -1, ptr %20, align 4, !tbaa !28
  %21 = getelementptr inbounds nuw i8, ptr %15, i64 112
  %22 = getelementptr inbounds nuw i8, ptr %15, i64 72
  tail call void @llvm.memset.p0.i64(ptr noundef nonnull align 8 dereferenceable(32) %21, i8 0, i64 32, i1 false)
  store i64 -1, ptr %22, align 8
  %23 = getelementptr inbounds nuw i8, ptr %15, i64 64
  store ptr null, ptr %23, align 8, !tbaa !21
  %24 = getelementptr inbounds nuw i8, ptr %15, i64 32
  store ptr %5, ptr %24, align 8, !tbaa !32
  %.not.i.i = icmp eq ptr %0, null
  br i1 %.not.i.i, label %.thread, label %25

25:                                               ; preds = %4
  store ptr %0, ptr %15, align 8, !tbaa !22
  %26 = getelementptr inbounds nuw i8, ptr %0, i64 8
  store ptr %15, ptr %26, align 8, !tbaa !34
  %.not7.i.i17 = icmp eq ptr %1, null
  br i1 %.not7.i.i17, label %block_join.exit22, label %.thread

.thread:                                          ; preds = %4, %25
  %.sroa.3.0.i34 = phi ptr [ %1, %25 ], [ %15, %4 ]
  store ptr %5, ptr %.sroa.3.0.i34, align 8, !tbaa !22
  %27 = getelementptr inbounds nuw i8, ptr %5, i64 8
  store ptr %.sroa.3.0.i34, ptr %27, align 8, !tbaa !34
  br label %block_join.exit22

block_join.exit22:                                ; preds = %25, %.thread
  %.sroa.0.1.i19 = phi ptr [ %5, %25 ], [ %15, %.thread ]
  %.not.i.i23 = icmp eq ptr %2, null
  br i1 %.not.i.i23, label %block_join.exit29, label %28

28:                                               ; preds = %block_join.exit22
  store ptr %2, ptr %5, align 8, !tbaa !22
  %29 = getelementptr inbounds nuw i8, ptr %2, i64 8
  store ptr %5, ptr %29, align 8, !tbaa !34
  br label %block_join.exit29

block_join.exit29:                                ; preds = %block_join.exit22, %28
  %.sroa.3.0.i25 = phi ptr [ %5, %block_join.exit22 ], [ %3, %28 ]
  %.fca.0.insert.i27 = insertvalue { ptr, ptr } poison, ptr %.sroa.0.1.i19, 0
  %.fca.1.insert.i28 = insertvalue { ptr, ptr } %.fca.0.insert.i27, ptr %.sroa.3.0.i25, 1
  store ptr %.sroa.3.0.i25, ptr %14, align 8, !tbaa !32
  ret { ptr, ptr } %.fca.1.insert.i28
}